target datalayout = "e-m:e-p270:32:32-p271:32:32-p272:64:64-i64:64-i128:128-f80:128-n8:16:32:64-S128"
target triple = "x86_64-pc-linux-gnu"

%struct._zend_compiler_globals = type { %struct._zend_stack, ptr, ptr, i32, ptr, ptr, ptr, ptr, i8, i8, i8, i8, i8, %struct._zend_llist, ptr, i8, i8, i8, i8, ptr, i32, i32, %struct._zend_oparray_context, %struct._zend_file_context, ptr, %struct._zend_array, ptr, i64, i8, i8, i8, ptr, ptr, %struct._zend_stack, ptr, i32, ptr, ptr, i64, i64, ptr, ptr, ptr, ptr, i32, %struct._zend_stack }
%struct._zend_llist = type { ptr, ptr, i64, i64, ptr, i8, ptr }
%struct._zend_oparray_context = type { i32, i32, i32, i32, i32, i32, i32, ptr, ptr, i8 }
%struct._zend_file_context = type { %struct._zend_declarables, ptr, i8, i8, ptr, ptr, ptr, %struct._zend_array }
%struct._zend_declarables = type { i64 }
%struct._zend_array = type { %struct._zend_refcounted_h, %union.anon.4, i32, %union.anon.6, i32, i32, i32, i32, i64, ptr }
%struct._zend_refcounted_h = type { i32, %union.anon }
%union.anon = type { i32 }
%union.anon.4 = type { i32 }
%union.anon.6 = type { ptr }
%struct._zend_stack = type { i32, i32, i32, ptr }
%struct._zend_executor_globals = type { %struct._zval_struct, %struct._zval_struct, [32 x ptr], ptr, ptr, %struct._zend_array, %struct._zend_array, ptr, i32, i32, ptr, ptr, ptr, ptr, ptr, ptr, i64, ptr, ptr, i32, i32, i64, i32, i32, i32, i8, i8, %struct.zend_atomic_bool_s, %struct.zend_atomic_bool_s, ptr, i64, ptr, ptr, %struct._zend_array, %struct._zend_array, i32, i8, %struct._zval_struct, %struct._zval_struct, %struct._zend_stack, %struct._zend_stack, %struct._zend_stack, ptr, i32, i32, i64, ptr, ptr, ptr, %struct._zend_objects_store, ptr, ptr, ptr, [3 x %struct._zend_op], ptr, i8, i8, i64, i32, i32, ptr, [16 x %struct._HashTableIterator], ptr, %union._zend_function, %struct._zend_op, %struct._zend_array, i64, %struct.zend_get_gc_buffer, ptr, ptr, ptr, i64, i8, i32, ptr, ptr, i64, %struct._zend_call_stack, i64, i64, [6 x ptr] }
%struct.zend_atomic_bool_s = type { i8 }
%struct._zval_struct = type { %union._zend_value, %union.anon.0, %union.anon.3 }
%union._zend_value = type { i64 }
%union.anon.0 = type { i32 }
%union.anon.3 = type { i32 }
%struct._zend_objects_store = type { ptr, i32, i32, i32 }
%struct._HashTableIterator = type { ptr, i32, i32 }
%union._zend_function = type { %struct._zend_op_array }
%struct._zend_op_array = type { i8, [3 x i8], i32, ptr, ptr, ptr, i32, i32, ptr, ptr, ptr, ptr, i32, i32, i32, i32, ptr, ptr, ptr, ptr, ptr, i32, i32, ptr, ptr, ptr, i32, i32, i32, i32, ptr, ptr, [6 x ptr] }
%struct._zend_op = type { ptr, %union._znode_op, %union._znode_op, %union._znode_op, i32, i32, i8, i8, i8, i8 }
%union._znode_op = type { i32 }
%struct.zend_get_gc_buffer = type { ptr, ptr, ptr }
%struct._zend_call_stack = type { ptr, i64 }
%struct.smart_string = type { ptr, i64, i64 }
%struct.__va_list_tag = type { i32, i32, ptr, ptr }

@zend_printf_to_smart_string = hidden global ptr null, align 8
@.str = private unnamed_addr constant [1 x i8] zeroinitializer, align 1
@compiler_globals = external global %struct._zend_compiler_globals, align 8
@executor_globals = external global %struct._zend_executor_globals, align 8
@zend_ce_error = external global ptr, align 8
@.str.11 = private unnamed_addr constant [3 x i8] c"%s\00", align 1

; Function Attrs: nounwind uwtable
define i64 @zend_vspprintf(ptr noundef %0, i64 noundef %1, ptr noundef %2, ptr noundef %3) #0 {
  %5 = alloca ptr, align 8
  %6 = alloca i64, align 8
  %7 = alloca ptr, align 8
  %8 = alloca i64, align 8
  %9 = alloca ptr, align 8
  %10 = alloca ptr, align 8
  %11 = alloca %struct.smart_string, align 8
  store ptr %0, ptr %7, align 8
  store i64 %1, ptr %8, align 8
  store ptr %2, ptr %9, align 8
  store ptr %3, ptr %10, align 8
  call void @llvm.memset.p0.i64(ptr align 8 %11, i8 0, i64 24, i1 false)
  %12 = load ptr, ptr %7, align 8
  %13 = icmp ne ptr %12, null
  br i1 %13, label %15, label %14

14:                                               ; preds = %4
  store i64 0, ptr %6, align 8
  br label %53

15:                                               ; preds = %4
  %16 = load ptr, ptr @zend_printf_to_smart_string, align 8
  %17 = load ptr, ptr %9, align 8
  %18 = load ptr, ptr %10, align 8
  call void %16(ptr noundef %11, ptr noundef %17, ptr noundef %18)
  %19 = load i64, ptr %8, align 8
  %20 = icmp ne i64 %19, 0
  br i1 %20, label %21, label %29

21:                                               ; preds = %15
  %22 = getelementptr inbounds %struct.smart_string, ptr %11, i32 0, i32 1
  %23 = load i64, ptr %22, align 8
  %24 = load i64, ptr %8, align 8
  %25 = icmp ugt i64 %23, %24
  br i1 %25, label %26, label %29

26:                                               ; preds = %21
  %27 = load i64, ptr %8, align 8
  %28 = getelementptr inbounds %struct.smart_string, ptr %11, i32 0, i32 1
  store i64 %27, ptr %28, align 8
  br label %29

29:                                               ; preds = %26, %21, %15
  store ptr %11, ptr %5, align 8
  %30 = load ptr, ptr %5, align 8
  %31 = load ptr, ptr %30, align 8
  %32 = icmp ne ptr %31, null
  br i1 %32, label %33, label %40

33:                                               ; preds = %29
  %34 = load ptr, ptr %5, align 8
  %35 = load ptr, ptr %34, align 8
  %36 = load ptr, ptr %5, align 8
  %37 = getelementptr inbounds %struct.smart_string, ptr %36, i32 0, i32 1
  %38 = load i64, ptr %37, align 8
  %39 = getelementptr inbounds i8, ptr %35, i64 %38
  store i8 0, ptr %39, align 1
  br label %40

40:                                               ; preds = %33, %29
  %41 = getelementptr inbounds %struct.smart_string, ptr %11, i32 0, i32 0
  %42 = load ptr, ptr %41, align 8
  %43 = icmp ne ptr %42, null
  br i1 %43, label %44, label %50

44:                                               ; preds = %40
  %45 = getelementptr inbounds %struct.smart_string, ptr %11, i32 0, i32 0
  %46 = load ptr, ptr %45, align 8
  %47 = load ptr, ptr %7, align 8
  store ptr %46, ptr %47, align 8
  %48 = getelementptr inbounds %struct.smart_string, ptr %11, i32 0, i32 1
  %49 = load i64, ptr %48, align 8
  store i64 %49, ptr %6, align 8
  br label %53

50:                                               ; preds = %40
  %51 = call noalias ptr @_estrndup(ptr noundef @.str, i64 noundef 0)
  %52 = load ptr, ptr %7, align 8
  store ptr %51, ptr %52, align 8
  store i64 0, ptr %6, align 8
  br label %53

53:                                               ; preds = %50, %44, %14
  %54 = load i64, ptr %6, align 8
  ret i64 %54
}

; Function Attrs: nounwind uwtable
define void @zend_throw_error(ptr noundef %0, ptr noundef %1, ...) #0 {
  %3 = alloca ptr, align 8
  %4 = alloca ptr, align 8
  %5 = alloca [1 x %struct.__va_list_tag], align 16
  %6 = alloca ptr, align 8
  store ptr %0, ptr %3, align 8
  store ptr %1, ptr %4, align 8
  store ptr null, ptr %6, align 8
  %7 = load ptr, ptr %3, align 8
  %8 = icmp ne ptr %7, null
  br i1 %8, label %11, label %9

9:                                                ; preds = %2
  %10 = load ptr, ptr @zend_ce_error, align 8
  store ptr %10, ptr %3, align 8
  br label %11

11:                                               ; preds = %9, %2
  %12 = load ptr, ptr getelementptr inbounds (%struct._zend_executor_globals, ptr @executor_globals, i32 0, i32 50), align 8
  %13 = icmp eq ptr %12, inttoptr (i64 -1 to ptr)
  br i1 %13, label %14, label %15

14:                                               ; preds = %11
  br label %34

15:                                               ; preds = %11
  %16 = getelementptr inbounds [1 x %struct.__va_list_tag], ptr %5, i64 0, i64 0
  call void @llvm.va_start(ptr %16)
  %17 = load ptr, ptr %4, align 8
  %18 = getelementptr inbounds [1 x %struct.__va_list_tag], ptr %5, i64 0, i64 0
  %19 = call i64 @zend_vspprintf(ptr noundef %6, i64 noundef 0, ptr noundef %17, ptr noundef %18)
  %20 = load ptr, ptr getelementptr inbounds (%struct._zend_executor_globals, ptr @executor_globals, i32 0, i32 17), align 8
  %21 = icmp ne ptr %20, null
  br i1 %21, label %22, label %29

22:                                               ; preds = %15
  %23 = load i8, ptr getelementptr inbounds (%struct._zend_compiler_globals, ptr @compiler_globals, i32 0, i32 9), align 1
  %24 = trunc i8 %23 to i1
  br i1 %24, label %29, label %25

25:                                               ; preds = %22
  %26 = load ptr, ptr %3, align 8
  %27 = load ptr, ptr %6, align 8
  %28 = call ptr @zend_throw_exception(ptr noundef %26, ptr noundef %27, i64 noundef 0)
  br label %31

29:                                               ; preds = %22, %15
  %30 = load ptr, ptr %6, align 8
  call void (i32, ptr, ...) @zend_error_noreturn(i32 noundef 1, ptr noundef @.str.11, ptr noundef %30) #23
  unreachable

31:                                               ; preds = %25
  %32 = load ptr, ptr %6, align 8
  call void @_efree(ptr noundef %32)
  %33 = getelementptr inbounds [1 x %struct.__va_list_tag], ptr %5, i64 0, i64 0
  call void @llvm.va_end(ptr %33)
  br label %34

34:                                               ; preds = %31, %14
  ret void
}