; Function Attrs: nounwind uwtable
define void @zend_throw_error(ptr noundef %0, ptr noundef %1, ...) local_unnamed_addr #0 {
  %3 = alloca %struct.smart_string, align 8
  %4 = alloca [1 x %struct.__va_list_tag], align 16
  %.not = icmp eq ptr %0, null
  %5 = load ptr, ptr @zend_ce_error, align 8
  %spec.select = select i1 %.not, ptr %5, ptr %0
  %6 = load ptr, ptr getelementptr inbounds (%struct._zend_executor_globals, ptr @executor_globals, i64 0, i32 50), align 8
  %7 = icmp eq ptr %6, inttoptr (i64 -1 to ptr)
  br i1 %7, label %23, label %8

8:                                                ; preds = %2
  call void @llvm.va_start(ptr nonnull %4)
  call void @llvm.lifetime.start.p0(i64 24, ptr nonnull %3)
  call void @llvm.memset.p0.i64(ptr noundef nonnull align 8 dereferenceable(24) %3, i8 0, i64 24, i1 false)
  %9 = load ptr, ptr @zend_printf_to_smart_string, align 8
  call void %9(ptr noundef nonnull %3, ptr noundef %1, ptr noundef nonnull %4) #30
  %10 = load ptr, ptr %3, align 8
  %.not16.i = icmp eq ptr %10, null
  br i1 %.not16.i, label %.thread.i, label %11

11:                                               ; preds = %8
  %12 = getelementptr inbounds i8, ptr %3, i64 8
  %13 = load i64, ptr %12, align 8
  %14 = getelementptr inbounds i8, ptr %10, i64 %13
  store i8 0, ptr %14, align 1
  %.pr.i = load ptr, ptr %3, align 8
  %.not17.i = icmp eq ptr %.pr.i, null
  br i1 %.not17.i, label %.thread.i, label %zend_vspprintf.exit

.thread.i:                                        ; preds = %11, %8
  %15 = call noalias ptr @_estrndup(ptr noundef nonnull @.str, i64 noundef 0) #30
  br label %zend_vspprintf.exit

zend_vspprintf.exit:                              ; preds = %11, %.thread.i
  %.0 = phi ptr [ %15, %.thread.i ], [ %.pr.i, %11 ]
  call void @llvm.lifetime.end.p0(i64 24, ptr nonnull %3)
  %16 = load ptr, ptr getelementptr inbounds (%struct._zend_executor_globals, ptr @executor_globals, i64 0, i32 17), align 8
  %.not4 = icmp eq ptr %16, null
  br i1 %.not4, label %22, label %17

17:                                               ; preds = %zend_vspprintf.exit
  %18 = load i8, ptr getelementptr inbounds (%struct._zend_compiler_globals, ptr @compiler_globals, i64 0, i32 9), align 1
  %19 = and i8 %18, 1
  %.not5 = icmp eq i8 %19, 0
  br i1 %.not5, label %20, label %22

20:                                               ; preds = %17
  %21 = call ptr @zend_throw_exception(ptr noundef %spec.select, ptr noundef %.0, i64 noundef 0) #30
  call void @_efree(ptr noundef %.0) #30
  call void @llvm.va_end(ptr nonnull %4)
  br label %23

22:                                               ; preds = %17, %zend_vspprintf.exit
  call void (i32, ptr, ...) @zend_error_noreturn(i32 noundef 1, ptr noundef nonnull @.str.11, ptr noundef %.0) #36
  unreachable

23:                                               ; preds = %2, %20
  ret void
}